; Function Attrs: mustprogress nounwind uwtable
define internal fastcc void @_ZN3gmx26StringToEnumValueConverterI11ReplaceTypeXadL_ZL17enumValueToStringS1_EELNS_17StringCompareTypeE1ELNS_12StripStringsE1EED2Ev(ptr noundef nonnull align 8 dereferenceable(48) %0) unnamed_addr #3 align 2 personality ptr @__gxx_personality_v0 {
  %2 = getelementptr inbounds i8, ptr %0, i64 16
  %3 = load ptr, ptr %2, align 8
  invoke void @_ZNSt8_Rb_treeINSt7__cxx1112basic_stringIcSt11char_traitsIcESaIcEEESt4pairIKS5_11ReplaceTypeESt10_Select1stIS9_EN3gmx13StringCompareESaIS9_EE8_M_eraseEPSt13_Rb_tree_nodeIS9_E(ptr noundef nonnull align 8 dereferenceable(48) %0, ptr noundef %3)
          to label %_ZNSt3mapINSt7__cxx1112basic_stringIcSt11char_traitsIcESaIcEEE11ReplaceTypeN3gmx13StringCompareESaISt4pairIKS5_S6_EEED2Ev.exit unwind label %4

4:                                                ; preds = %1
  %5 = landingpad { ptr, i32 }
          catch ptr null
  %6 = extractvalue { ptr, i32 } %5, 0
  tail call void @__clang_call_terminate(ptr %6) #18
  unreachable

_ZNSt3mapINSt7__cxx1112basic_stringIcSt11char_traitsIcESaIcEEE11ReplaceTypeN3gmx13StringCompareESaISt4pairIKS5_S6_EEED2Ev.exit: ; preds = %1
  ret void
}